target datalayout = "e-m:e-p270:32:32-p271:32:32-p272:64:64-i64:64-i128:128-f80:128-n8:16:32:64-S128"
target triple = "x86_64-pc-linux-gnu"

%struct.Vec_Wrd_t_ = type { i32, i32, ptr }

@.str.1 = private unnamed_addr constant [2 x i8] c"\0A\00", align 1
@.str.16 = private unnamed_addr constant [8 x i8] c"%5d :  \00", align 1
@.str.17 = private unnamed_addr constant [15 x i8] c"%2d %2d %2d   \00", align 1
@.str.18 = private unnamed_addr constant [3 x i8] c"  \00", align 1

; Function Attrs: inlinehint nounwind uwtable
define internal void @Vec_WrdFree(ptr noundef %0) #3 {
  %2 = alloca ptr, align 8
  store ptr %0, ptr %2, align 8, !tbaa !40
  %3 = load ptr, ptr %2, align 8, !tbaa !40
  %4 = getelementptr inbounds nuw %struct.Vec_Wrd_t_, ptr %3, i32 0, i32 2
  %5 = load ptr, ptr %4, align 8, !tbaa !45
  %6 = icmp ne ptr %5, null
  br i1 %6, label %7, label %13

7:                                                ; preds = %1
  %8 = load ptr, ptr %2, align 8, !tbaa !40
  %9 = getelementptr inbounds nuw %struct.Vec_Wrd_t_, ptr %8, i32 0, i32 2
  %10 = load ptr, ptr %9, align 8, !tbaa !45
  call void @free(ptr noundef %10) #12
  %11 = load ptr, ptr %2, align 8, !tbaa !40
  %12 = getelementptr inbounds nuw %struct.Vec_Wrd_t_, ptr %11, i32 0, i32 2
  store ptr null, ptr %12, align 8, !tbaa !45
  br label %14

13:                                               ; preds = %1
  br label %14

14:                                               ; preds = %13, %7
  %15 = load ptr, ptr %2, align 8, !tbaa !40
  %16 = icmp ne ptr %15, null
  br i1 %16, label %17, label %19

17:                                               ; preds = %14
  %18 = load ptr, ptr %2, align 8, !tbaa !40
  call void @free(ptr noundef %18) #12
  store ptr null, ptr %2, align 8, !tbaa !40
  br label %20

19:                                               ; preds = %14
  br label %20

20:                                               ; preds = %19, %17
  ret void
}

; Function Attrs: inlinehint nounwind uwtable
define internal i64 @Vec_WrdEntry(ptr noundef %0, i32 noundef %1) #3 {
  %3 = alloca ptr, align 8
  %4 = alloca i32, align 4
  store ptr %0, ptr %3, align 8, !tbaa !40
  store i32 %1, ptr %4, align 4, !tbaa !24
  %5 = load ptr, ptr %3, align 8, !tbaa !40
  %6 = getelementptr inbounds nuw %struct.Vec_Wrd_t_, ptr %5, i32 0, i32 2
  %7 = load ptr, ptr %6, align 8, !tbaa !45
  %8 = load i32, ptr %4, align 4, !tbaa !24
  %9 = sext i32 %8 to i64
  %10 = getelementptr inbounds i64, ptr %7, i64 %9
  %11 = load i64, ptr %10, align 8, !tbaa !55
  ret i64 %11
}

; Function Attrs: inlinehint nounwind uwtable
define internal i32 @Vec_WrdSize(ptr noundef %0) #3 {
  %2 = alloca ptr, align 8
  store ptr %0, ptr %2, align 8, !tbaa !40
  %3 = load ptr, ptr %2, align 8, !tbaa !40
  %4 = getelementptr inbounds nuw %struct.Vec_Wrd_t_, ptr %3, i32 0, i32 1
  %5 = load i32, ptr %4, align 4, !tbaa !41
  ret i32 %5
}

; Function Attrs: nounwind uwtable
define i32 @Ifd_ManDsdTest33() #0 {
  %1 = alloca i32, align 4
  %2 = alloca ptr, align 8
  %3 = alloca i32, align 4
  %4 = alloca i32, align 4
  %5 = alloca [6 x i32], align 16
  %6 = alloca i64, align 8
  call void @llvm.lifetime.start.p0(i64 4, ptr %1) #12
  store i32 6, ptr %1, align 4, !tbaa !24
  call void @llvm.lifetime.start.p0(i64 8, ptr %2) #12
  %7 = load i32, ptr %1, align 4, !tbaa !24
  %8 = call ptr @Ifd_ManDsdTruths(i32 noundef %7)
  store ptr %8, ptr %2, align 8, !tbaa !40
  call void @llvm.lifetime.start.p0(i64 4, ptr %3) #12
  call void @llvm.lifetime.start.p0(i64 4, ptr %4) #12
  call void @llvm.lifetime.start.p0(i64 24, ptr %5) #12
  call void @llvm.lifetime.start.p0(i64 8, ptr %6) #12
  store i32 0, ptr %3, align 4, !tbaa !24
  br label %9

9:                                                ; preds = %55, %0
  %10 = load i32, ptr %3, align 4, !tbaa !24
  %11 = load ptr, ptr %2, align 8, !tbaa !40
  %12 = call i32 @Vec_WrdSize(ptr noundef %11)
  %13 = icmp slt i32 %10, %12
  br i1 %13, label %14, label %18

14:                                               ; preds = %9
  %15 = load ptr, ptr %2, align 8, !tbaa !40
  %16 = load i32, ptr %3, align 4, !tbaa !24
  %17 = call i64 @Vec_WrdEntry(ptr noundef %15, i32 noundef %16)
  store i64 %17, ptr %6, align 8, !tbaa !55
  br label %18

18:                                               ; preds = %14, %9
  %19 = phi i1 [ false, %9 ], [ true, %14 ]
  br i1 %19, label %20, label %58

20:                                               ; preds = %18
  %21 = load i64, ptr %6, align 8, !tbaa !55
  %22 = getelementptr inbounds [6 x i32], ptr %5, i64 0, i64 0
  call void @Ifd_ComputeSignature(i64 noundef %21, ptr noundef %22)
  %23 = load i32, ptr %3, align 4, !tbaa !24
  %24 = call i32 (ptr, ...) @printf(ptr noundef @.str.16, i32 noundef %23)
  store i32 0, ptr %4, align 4, !tbaa !24
  br label %25

25:                                               ; preds = %48, %20
  %26 = load i32, ptr %4, align 4, !tbaa !24
  %27 = icmp slt i32 %26, 6
  br i1 %27, label %28, label %51

28:                                               ; preds = %25
  %29 = load i32, ptr %4, align 4, !tbaa !24
  %30 = sext i32 %29 to i64
  %31 = getelementptr inbounds [6 x i32], ptr %5, i64 0, i64 %30
  %32 = load i32, ptr %31, align 4, !tbaa !24
  %33 = ashr i32 %32, 20
  %34 = and i32 %33, 255
  %35 = load i32, ptr %4, align 4, !tbaa !24
  %36 = sext i32 %35 to i64
  %37 = getelementptr inbounds [6 x i32], ptr %5, i64 0, i64 %36
  %38 = load i32, ptr %37, align 4, !tbaa !24
  %39 = ashr i32 %38, 10
  %40 = and i32 %39, 255
  %41 = load i32, ptr %4, align 4, !tbaa !24
  %42 = sext i32 %41 to i64
  %43 = getelementptr inbounds [6 x i32], ptr %5, i64 0, i64 %42
  %44 = load i32, ptr %43, align 4, !tbaa !24
  %45 = ashr i32 %44, 0
  %46 = and i32 %45, 255
  %47 = call i32 (ptr, ...) @printf(ptr noundef @.str.17, i32 noundef %34, i32 noundef %40, i32 noundef %46)
  br label %48

48:                                               ; preds = %28
  %49 = load i32, ptr %4, align 4, !tbaa !24
  %50 = add nsw i32 %49, 1
  store i32 %50, ptr %4, align 4, !tbaa !24
  br label %25, !llvm.loop !114

51:                                               ; preds = %25
  %52 = call i32 (ptr, ...) @printf(ptr noundef @.str.18)
  %53 = load i32, ptr %1, align 4, !tbaa !24
  call void @Kit_DsdPrintFromTruth(ptr noundef %6, i32 noundef %53)
  %54 = call i32 (ptr, ...) @printf(ptr noundef @.str.1)
  br label %55

55:                                               ; preds = %51
  %56 = load i32, ptr %3, align 4, !tbaa !24
  %57 = add nsw i32 %56, 1
  store i32 %57, ptr %3, align 4, !tbaa !24
  br label %9, !llvm.loop !115

58:                                               ; preds = %18
  %59 = load ptr, ptr %2, align 8, !tbaa !40
  call void @Vec_WrdFree(ptr noundef %59)
  call void @llvm.lifetime.end.p0(i64 8, ptr %6) #12
  call void @llvm.lifetime.end.p0(i64 24, ptr %5) #12
  call void @llvm.lifetime.end.p0(i64 4, ptr %4) #12
  call void @llvm.lifetime.end.p0(i64 4, ptr %3) #12
  call void @llvm.lifetime.end.p0(i64 8, ptr %2) #12
  call void @llvm.lifetime.end.p0(i64 4, ptr %1) #12
  ret i32 1
}