; Function Attrs: nounwind uwtable
define noundef i32 @Ifd_ManDsdTest33() local_unnamed_addr #5 {
  %1 = alloca [6 x i32], align 16
  %2 = alloca i64, align 8
  %3 = tail call ptr @Ifd_ManDsdTruths(i32 noundef 6)
  call void @llvm.lifetime.start.p0(i64 24, ptr nonnull %1) #28
  call void @llvm.lifetime.start.p0(i64 8, ptr nonnull %2) #28
  %4 = getelementptr i8, ptr %3, i64 4
  %.val1416 = load i32, ptr %4, align 4, !tbaa !29
  %5 = icmp sgt i32 %.val1416, 0
  br i1 %5, label %.lr.ph, label %.critedge

.lr.ph:                                           ; preds = %0
  %6 = getelementptr i8, ptr %3, i64 8
  br label %7

7:                                                ; preds = %.lr.ph, %21
  %indvars.iv19 = phi i64 [ 0, %.lr.ph ], [ %indvars.iv.next20, %21 ]
  %.val = load ptr, ptr %6, align 8, !tbaa !33
  %8 = getelementptr inbounds nuw i64, ptr %.val, i64 %indvars.iv19
  %9 = load i64, ptr %8, align 8, !tbaa !46
  store i64 %9, ptr %2, align 8, !tbaa !46
  call void @Ifd_ComputeSignature(i64 noundef %9, ptr noundef nonnull %1)
  %10 = trunc nuw nsw i64 %indvars.iv19 to i32
  %11 = call i32 (ptr, ...) @printf(ptr noundef nonnull dereferenceable(1) @.str.16, i32 noundef %10)
  br label %12

12:                                               ; preds = %7, %12
  %indvars.iv = phi i64 [ 0, %7 ], [ %indvars.iv.next, %12 ]
  %13 = getelementptr inbounds nuw [6 x i32], ptr %1, i64 0, i64 %indvars.iv
  %14 = load i32, ptr %13, align 4, !tbaa !37
  %15 = lshr i32 %14, 20
  %16 = and i32 %15, 255
  %17 = lshr i32 %14, 10
  %18 = and i32 %17, 255
  %19 = and i32 %14, 255
  %20 = call i32 (ptr, ...) @printf(ptr noundef nonnull dereferenceable(1) @.str.17, i32 noundef %16, i32 noundef %18, i32 noundef %19)
  %indvars.iv.next = add nuw nsw i64 %indvars.iv, 1
  %exitcond.not = icmp eq i64 %indvars.iv.next, 6
  br i1 %exitcond.not, label %21, label %12, !llvm.loop !98

21:                                               ; preds = %12
  %22 = call i32 (ptr, ...) @printf(ptr noundef nonnull dereferenceable(1) @.str.18)
  call void @Kit_DsdPrintFromTruth(ptr noundef nonnull %2, i32 noundef 6) #28
  %putchar = call i32 @putchar(i32 10)
  %indvars.iv.next20 = add nuw nsw i64 %indvars.iv19, 1
  %.val14 = load i32, ptr %4, align 4, !tbaa !29
  %23 = sext i32 %.val14 to i64
  %24 = icmp slt i64 %indvars.iv.next20, %23
  br i1 %24, label %7, label %.critedge, !llvm.loop !99

.critedge:                                        ; preds = %21, %0
  %25 = getelementptr inbounds nuw i8, ptr %3, i64 8
  %26 = load ptr, ptr %25, align 8, !tbaa !33
  %.not.i = icmp eq ptr %26, null
  br i1 %.not.i, label %Vec_WrdFree.exit, label %27

27:                                               ; preds = %.critedge
  call void @free(ptr noundef nonnull %26) #28
  br label %Vec_WrdFree.exit

Vec_WrdFree.exit:                                 ; preds = %.critedge, %27
  call void @free(ptr noundef nonnull %3) #28
  call void @llvm.lifetime.end.p0(i64 8, ptr nonnull %2) #28
  call void @llvm.lifetime.end.p0(i64 24, ptr nonnull %1) #28
  ret i32 1
}